target datalayout = "e-m:e-p270:32:32-p271:32:32-p272:64:64-i64:64-i128:128-f80:128-n8:16:32:64-S128"
target triple = "x86_64-pc-linux-gnu"

%struct.VHeader_ = type { i32, i32, [0 x i8] }

; Function Attrs: nounwind uwtable
define dso_local ptr @win64_create_params(ptr noundef %0, ptr noundef %1, i1 noundef zeroext %2) #0 {
  %4 = alloca i32, align 4
  %5 = alloca ptr, align 8
  %6 = alloca ptr, align 8
  %7 = alloca ptr, align 8
  %8 = alloca ptr, align 8
  %9 = alloca ptr, align 8
  %10 = alloca i8, align 1
  %11 = alloca i32, align 4
  %12 = alloca ptr, align 8
  %13 = alloca i32, align 4
  store ptr %0, ptr %8, align 8
  store ptr %1, ptr %9, align 8
  %14 = zext i1 %2 to i8
  store i8 %14, ptr %10, align 1
  %15 = load ptr, ptr %8, align 8
  store ptr %15, ptr %5, align 8
  %16 = load ptr, ptr %5, align 8
  %17 = icmp ne ptr %16, null
  br i1 %17, label %19, label %18

18:                                               ; preds = %3
  store i32 0, ptr %4, align 4
  br label %24

19:                                               ; preds = %3
  %20 = load ptr, ptr %5, align 8
  store ptr %20, ptr %6, align 8
  %21 = load ptr, ptr %6, align 8
  %22 = getelementptr inbounds %struct.VHeader_, ptr %21, i64 -1
  %23 = load i32, ptr %22, align 4
  store i32 %23, ptr %4, align 4
  br label %24

24:                                               ; preds = %19, %18
  %25 = load i32, ptr %4, align 4
  store i32 %25, ptr %11, align 4
  %26 = load i32, ptr %11, align 4
  %27 = icmp ne i32 %26, 0
  br i1 %27, label %29, label %28

28:                                               ; preds = %24
  store ptr null, ptr %7, align 8
  br label %57

29:                                               ; preds = %24
  %30 = load i32, ptr %11, align 4
  %31 = zext i32 %30 to i64
  %32 = mul i64 32, %31
  %33 = call ptr @calloc_arena(i64 noundef %32)
  store ptr %33, ptr %12, align 8
  store i32 0, ptr %13, align 4
  br label %34

34:                                               ; preds = %52, %29
  %35 = load i32, ptr %13, align 4
  %36 = load i32, ptr %11, align 4
  %37 = icmp ult i32 %35, %36
  br i1 %37, label %38, label %55

38:                                               ; preds = %34
  %39 = load ptr, ptr %9, align 8
  %40 = load ptr, ptr %8, align 8
  %41 = load i32, ptr %13, align 4
  %42 = zext i32 %41 to i64
  %43 = getelementptr inbounds ptr, ptr %40, i64 %42
  %44 = load ptr, ptr %43, align 8
  %45 = load i8, ptr %10, align 1
  %46 = trunc i8 %45 to i1
  %47 = call ptr @win64_classify(ptr noundef %39, ptr noundef %44, i1 noundef zeroext false, i1 noundef zeroext %46)
  %48 = load ptr, ptr %12, align 8
  %49 = load i32, ptr %13, align 4
  %50 = zext i32 %49 to i64
  %51 = getelementptr inbounds ptr, ptr %48, i64 %50
  store ptr %47, ptr %51, align 8
  br label %52

52:                                               ; preds = %38
  %53 = load i32, ptr %13, align 4
  %54 = add i32 %53, 1
  store i32 %54, ptr %13, align 4
  br label %34, !llvm.loop !7

55:                                               ; preds = %34
  %56 = load ptr, ptr %12, align 8
  store ptr %56, ptr %7, align 8
  br label %57

57:                                               ; preds = %55, %28
  %58 = load ptr, ptr %7, align 8
  ret ptr %58
}