; Function Attrs: nounwind uwtable
define dso_local ptr @win64_create_params(ptr noundef readonly %0, ptr nocapture noundef %1, i1 noundef zeroext %2) local_unnamed_addr #0 {
  %.not = icmp eq ptr %0, null
  br i1 %.not, label %.thread, label %4

4:                                                ; preds = %3
  %5 = getelementptr inbounds i8, ptr %0, i64 -8
  %6 = load i32, ptr %5, align 4
  %.not20 = icmp eq i32 %6, 0
  br i1 %.not20, label %.thread, label %7

7:                                                ; preds = %4
  %8 = zext i32 %6 to i64
  %9 = shl nuw nsw i64 %8, 5
  %10 = tail call ptr @calloc_arena(i64 noundef %9) #5
  br label %11

11:                                               ; preds = %7, %11
  %indvars.iv = phi i64 [ 0, %7 ], [ %indvars.iv.next, %11 ]
  %12 = getelementptr inbounds ptr, ptr %0, i64 %indvars.iv
  %13 = load ptr, ptr %12, align 8
  %14 = tail call ptr @win64_classify(ptr noundef %1, ptr noundef %13, i1 noundef zeroext false, i1 noundef zeroext %2)
  %15 = getelementptr inbounds ptr, ptr %10, i64 %indvars.iv
  store ptr %14, ptr %15, align 8
  %indvars.iv.next = add nuw nsw i64 %indvars.iv, 1
  %exitcond.not = icmp eq i64 %indvars.iv.next, %8
  br i1 %exitcond.not, label %.thread, label %11, !llvm.loop !8

.thread:                                          ; preds = %11, %3, %4
  %.018 = phi ptr [ null, %4 ], [ null, %3 ], [ %10, %11 ]
  ret ptr %.018
}